target datalayout = "e-m:e-p270:32:32-p271:32:32-p272:64:64-i64:64-i128:128-f80:128-n8:16:32:64-S128"
target triple = "x86_64-pc-linux-gnu"

%struct.client = type { i64, i64, ptr, i8, i8, i8, i8, i32, ptr, ptr, ptr, ptr, ptr, i64, i64, i32, ptr, i32, i32, ptr, i64, ptr, ptr, ptr, ptr, ptr, i32, i32, i64, ptr, i64, ptr, i64, i64, i64, i32, ptr, i64, i64, i32, i32, i32, i32, i64, i64, ptr, i64, i64, i64, i64, i64, i64, i64, i64, [41 x i8], i32, ptr, i32, i32, i64, %struct.multiState, %struct.blockingState, i64, ptr, ptr, ptr, ptr, ptr, ptr, ptr, ptr, ptr, ptr, ptr, ptr, ptr, ptr, i64, ptr, i64, i32, ptr, ptr, ptr, i64, %struct.listNode, i64, i64, i32, i64, ptr }
%struct.multiState = type { ptr, i32, i32, i32, i64, i32 }
%struct.blockingState = type { i32, i64, i32, ptr, i32, i32, i64, ptr, ptr, i64 }
%struct.listNode = type { ptr, ptr, ptr }

; Function Attrs: nounwind uwtable
define dso_local void @touchCommand(ptr noundef %0) #0 {
  %2 = alloca ptr, align 8
  %3 = alloca i32, align 4
  %4 = alloca i32, align 4
  store ptr %0, ptr %2, align 8, !tbaa !83
  call void @llvm.lifetime.start.p0(i64 4, ptr %3) #8
  store i32 0, ptr %3, align 4, !tbaa !21
  call void @llvm.lifetime.start.p0(i64 4, ptr %4) #8
  store i32 1, ptr %4, align 4, !tbaa !21
  br label %5

5:                                                ; preds = %29, %1
  %6 = load i32, ptr %4, align 4, !tbaa !21
  %7 = load ptr, ptr %2, align 8, !tbaa !83
  %8 = getelementptr inbounds nuw %struct.client, ptr %7, i32 0, i32 15
  %9 = load i32, ptr %8, align 8, !tbaa !86
  %10 = icmp slt i32 %6, %9
  br i1 %10, label %12, label %11

11:                                               ; preds = %5
  call void @llvm.lifetime.end.p0(i64 4, ptr %4) #8
  br label %32

12:                                               ; preds = %5
  %13 = load ptr, ptr %2, align 8, !tbaa !83
  %14 = getelementptr inbounds nuw %struct.client, ptr %13, i32 0, i32 8
  %15 = load ptr, ptr %14, align 8, !tbaa !97
  %16 = load ptr, ptr %2, align 8, !tbaa !83
  %17 = getelementptr inbounds nuw %struct.client, ptr %16, i32 0, i32 16
  %18 = load ptr, ptr %17, align 8, !tbaa !95
  %19 = load i32, ptr %4, align 4, !tbaa !21
  %20 = sext i32 %19 to i64
  %21 = getelementptr inbounds ptr, ptr %18, i64 %20
  %22 = load ptr, ptr %21, align 8, !tbaa !16
  %23 = call ptr @lookupKeyRead(ptr noundef %15, ptr noundef %22)
  %24 = icmp ne ptr %23, null
  br i1 %24, label %25, label %28

25:                                               ; preds = %12
  %26 = load i32, ptr %3, align 4, !tbaa !21
  %27 = add nsw i32 %26, 1
  store i32 %27, ptr %3, align 4, !tbaa !21
  br label %28

28:                                               ; preds = %25, %12
  br label %29

29:                                               ; preds = %28
  %30 = load i32, ptr %4, align 4, !tbaa !21
  %31 = add nsw i32 %30, 1
  store i32 %31, ptr %4, align 4, !tbaa !21
  br label %5, !llvm.loop !113

32:                                               ; preds = %11
  %33 = load ptr, ptr %2, align 8, !tbaa !83
  %34 = load i32, ptr %3, align 4, !tbaa !21
  %35 = sext i32 %34 to i64
  call void @addReplyLongLong(ptr noundef %33, i64 noundef %35)
  call void @llvm.lifetime.end.p0(i64 4, ptr %3) #8
  ret void
}