; Function Attrs: nounwind uwtable
define dso_local void @touchCommand(ptr noundef %0) local_unnamed_addr #0 {
  %2 = getelementptr inbounds nuw i8, ptr %0, i64 88
  %3 = load i32, ptr %2, align 8, !tbaa !77
  %4 = icmp sgt i32 %3, 1
  br i1 %4, label %.lr.ph, label %._crit_edge

.lr.ph:                                           ; preds = %1
  %5 = getelementptr inbounds nuw i8, ptr %0, i64 32
  %6 = getelementptr inbounds nuw i8, ptr %0, i64 96
  br label %8

._crit_edge.loopexit:                             ; preds = %8
  %7 = zext nneg i32 %spec.select to i64
  br label %._crit_edge

._crit_edge:                                      ; preds = %._crit_edge.loopexit, %1
  %.08.lcssa = phi i64 [ 0, %1 ], [ %7, %._crit_edge.loopexit ]
  tail call void @addReplyLongLong(ptr noundef nonnull %0, i64 noundef %.08.lcssa) #10
  ret void

8:                                                ; preds = %.lr.ph, %8
  %indvars.iv = phi i64 [ 1, %.lr.ph ], [ %indvars.iv.next, %8 ]
  %.089 = phi i32 [ 0, %.lr.ph ], [ %spec.select, %8 ]
  %9 = load ptr, ptr %5, align 8, !tbaa !91
  %10 = load ptr, ptr %6, align 8, !tbaa !88
  %11 = getelementptr inbounds nuw ptr, ptr %10, i64 %indvars.iv
  %12 = load ptr, ptr %11, align 8, !tbaa !89
  %13 = tail call ptr @lookupKeyRead(ptr noundef %9, ptr noundef %12) #10
  %.not = icmp ne ptr %13, null
  %14 = zext i1 %.not to i32
  %spec.select = add nuw nsw i32 %.089, %14
  %indvars.iv.next = add nuw nsw i64 %indvars.iv, 1
  %15 = load i32, ptr %2, align 8, !tbaa !77
  %16 = sext i32 %15 to i64
  %17 = icmp slt i64 %indvars.iv.next, %16
  br i1 %17, label %8, label %._crit_edge.loopexit, !llvm.loop !106
}